target datalayout = "e-m:e-p270:32:32-p271:32:32-p272:64:64-i64:64-i128:128-f80:128-n8:16:32:64-S128"
target triple = "x86_64-pc-linux-gnu"

%struct.hwloc_infos_s = type { ptr, i32, i32 }
%struct.hwloc_obj = type { i32, ptr, i32, ptr, i64, ptr, i32, i32, ptr, ptr, ptr, i32, ptr, ptr, i32, ptr, ptr, ptr, i32, i32, ptr, i32, ptr, i32, ptr, ptr, ptr, ptr, ptr, %struct.hwloc_infos_s, ptr, i64 }
%struct.hwloc_synthetic_backend_data_s = type { ptr, i64, %struct.hwloc_synthetic_indexes_s, [128 x %struct.hwloc_synthetic_level_data_s] }
%struct.hwloc_synthetic_indexes_s = type { ptr, i64, ptr, i32 }
%struct.hwloc_synthetic_level_data_s = type { i32, i64, %struct.hwloc_synthetic_attr_s, %struct.hwloc_synthetic_indexes_s, ptr }
%struct.hwloc_synthetic_attr_s = type { i32, i32, i32, i64, i64 }
%struct.hwloc_synthetic_attached_s = type { %struct.hwloc_synthetic_attr_s, ptr }

@.str.64 = private unnamed_addr constant [19 x i8] c"synthetic:attached\00", align 1
@.str.65 = private unnamed_addr constant [27 x i8] c"synthetic:attached:mscache\00", align 1

; Function Attrs: inlinehint nounwind uwtable
define internal i32 @hwloc__obj_type_is_cache(i32 noundef %0) #5 {
  %2 = alloca i32, align 4
  store i32 %0, ptr %2, align 4, !tbaa !14
  %3 = load i32, ptr %2, align 4, !tbaa !14
  %4 = icmp uge i32 %3, 5
  br i1 %4, label %5, label %8

5:                                                ; preds = %1
  %6 = load i32, ptr %2, align 4, !tbaa !14
  %7 = icmp ule i32 %6, 12
  br label %8

8:                                                ; preds = %5, %1
  %9 = phi i1 [ false, %1 ], [ %7, %5 ]
  %10 = zext i1 %9 to i32
  ret i32 %10
}

; Function Attrs: nounwind uwtable
define internal i32 @hwloc_synthetic_next_index(ptr noundef %0, i32 noundef %1) #0 {
  %3 = alloca ptr, align 8
  %4 = alloca i32, align 4
  %5 = alloca i32, align 4
  store ptr %0, ptr %3, align 8, !tbaa !146
  store i32 %1, ptr %4, align 4, !tbaa !14
  call void @llvm.lifetime.start.p0(i64 4, ptr %5) #13
  %6 = load ptr, ptr %3, align 8, !tbaa !146
  %7 = getelementptr inbounds nuw %struct.hwloc_synthetic_indexes_s, ptr %6, i32 0, i32 3
  %8 = load i32, ptr %7, align 8, !tbaa !179
  %9 = add i32 %8, 1
  store i32 %9, ptr %7, align 8, !tbaa !179
  store i32 %8, ptr %5, align 4, !tbaa !14
  %10 = load ptr, ptr %3, align 8, !tbaa !146
  %11 = getelementptr inbounds nuw %struct.hwloc_synthetic_indexes_s, ptr %10, i32 0, i32 2
  %12 = load ptr, ptr %11, align 8, !tbaa !156
  %13 = icmp ne ptr %12, null
  br i1 %13, label %14, label %22

14:                                               ; preds = %2
  %15 = load ptr, ptr %3, align 8, !tbaa !146
  %16 = getelementptr inbounds nuw %struct.hwloc_synthetic_indexes_s, ptr %15, i32 0, i32 2
  %17 = load ptr, ptr %16, align 8, !tbaa !156
  %18 = load i32, ptr %5, align 4, !tbaa !14
  %19 = zext i32 %18 to i64
  %20 = getelementptr inbounds nuw i32, ptr %17, i64 %19
  %21 = load i32, ptr %20, align 4, !tbaa !14
  store i32 %21, ptr %5, align 4, !tbaa !14
  br label %31

22:                                               ; preds = %2
  %23 = load i32, ptr %4, align 4, !tbaa !14
  %24 = call i32 @hwloc__obj_type_is_cache(i32 noundef %23)
  %25 = icmp ne i32 %24, 0
  br i1 %25, label %29, label %26

26:                                               ; preds = %22
  %27 = load i32, ptr %4, align 4, !tbaa !14
  %28 = icmp eq i32 %27, 13
  br i1 %28, label %29, label %30

29:                                               ; preds = %26, %22
  store i32 -1, ptr %5, align 4, !tbaa !14
  br label %30

30:                                               ; preds = %29, %26
  br label %31

31:                                               ; preds = %30, %14
  %32 = load i32, ptr %5, align 4, !tbaa !14
  call void @llvm.lifetime.end.p0(i64 4, ptr %5) #13
  ret i32 %32
}

; Function Attrs: nounwind uwtable
define internal void @hwloc_synthetic_insert_attached(ptr noundef %0, ptr noundef %1, ptr noundef %2, ptr noundef %3) #0 {
  %5 = alloca ptr, align 8
  %6 = alloca ptr, align 8
  %7 = alloca ptr, align 8
  %8 = alloca ptr, align 8
  %9 = alloca ptr, align 8
  %10 = alloca i32, align 4
  %11 = alloca i32, align 4
  %12 = alloca ptr, align 8
  store ptr %0, ptr %5, align 8, !tbaa !3
  store ptr %1, ptr %6, align 8, !tbaa !88
  store ptr %2, ptr %7, align 8, !tbaa !111
  store ptr %3, ptr %8, align 8, !tbaa !57
  call void @llvm.lifetime.start.p0(i64 8, ptr %9) #13
  call void @llvm.lifetime.start.p0(i64 4, ptr %10) #13
  %13 = load ptr, ptr %7, align 8, !tbaa !111
  %14 = icmp ne ptr %13, null
  br i1 %14, label %16, label %15

15:                                               ; preds = %4
  store i32 1, ptr %11, align 4
  br label %76

16:                                               ; preds = %4
  %17 = load ptr, ptr %6, align 8, !tbaa !88
  %18 = getelementptr inbounds nuw %struct.hwloc_synthetic_backend_data_s, ptr %17, i32 0, i32 2
  %19 = call i32 @hwloc_synthetic_next_index(ptr noundef %18, i32 noundef 14)
  store i32 %19, ptr %10, align 4, !tbaa !14
  %20 = load ptr, ptr %5, align 8, !tbaa !3
  %21 = load ptr, ptr %7, align 8, !tbaa !111
  %22 = getelementptr inbounds nuw %struct.hwloc_synthetic_attached_s, ptr %21, i32 0, i32 0
  %23 = getelementptr inbounds nuw %struct.hwloc_synthetic_attr_s, ptr %22, i32 0, i32 0
  %24 = load i32, ptr %23, align 8, !tbaa !112
  %25 = load i32, ptr %10, align 4, !tbaa !14
  %26 = call ptr @hwloc_alloc_setup_object(ptr noundef %20, i32 noundef %24, i32 noundef %25)
  store ptr %26, ptr %9, align 8, !tbaa !12
  %27 = load ptr, ptr %8, align 8, !tbaa !57
  %28 = call noalias ptr @hwloc_bitmap_dup(ptr noundef %27)
  %29 = load ptr, ptr %9, align 8, !tbaa !12
  %30 = getelementptr inbounds nuw %struct.hwloc_obj, ptr %29, i32 0, i32 25
  store ptr %28, ptr %30, align 8, !tbaa !178
  %31 = call noalias ptr @hwloc_bitmap_alloc()
  %32 = load ptr, ptr %9, align 8, !tbaa !12
  %33 = getelementptr inbounds nuw %struct.hwloc_obj, ptr %32, i32 0, i32 27
  store ptr %31, ptr %33, align 8, !tbaa !56
  %34 = load ptr, ptr %9, align 8, !tbaa !12
  %35 = getelementptr inbounds nuw %struct.hwloc_obj, ptr %34, i32 0, i32 27
  %36 = load ptr, ptr %35, align 8, !tbaa !56
  %37 = load i32, ptr %10, align 4, !tbaa !14
  %38 = call i32 @hwloc_bitmap_set(ptr noundef %36, i32 noundef %37)
  %39 = load ptr, ptr %7, align 8, !tbaa !111
  %40 = getelementptr inbounds nuw %struct.hwloc_synthetic_attached_s, ptr %39, i32 0, i32 0
  %41 = load ptr, ptr %9, align 8, !tbaa !12
  call void @hwloc_synthetic_set_attr(ptr noundef %40, ptr noundef %41)
  %42 = load ptr, ptr %5, align 8, !tbaa !3
  %43 = load ptr, ptr %9, align 8, !tbaa !12
  %44 = call ptr @hwloc__insert_object_by_cpuset(ptr noundef %42, ptr noundef null, ptr noundef %43, ptr noundef @.str.64)
  %45 = load ptr, ptr %7, align 8, !tbaa !111
  %46 = getelementptr inbounds nuw %struct.hwloc_synthetic_attached_s, ptr %45, i32 0, i32 0
  %47 = getelementptr inbounds nuw %struct.hwloc_synthetic_attr_s, ptr %46, i32 0, i32 4
  %48 = load i64, ptr %47, align 8, !tbaa !115
  %49 = icmp ne i64 %48, 0
  br i1 %49, label %50, label %69

50:                                               ; preds = %16
  call void @llvm.lifetime.start.p0(i64 8, ptr %12) #13
  %51 = load ptr, ptr %5, align 8, !tbaa !3
  %52 = call ptr @hwloc_alloc_setup_object(ptr noundef %51, i32 noundef 15, i32 noundef -1)
  store ptr %52, ptr %12, align 8, !tbaa !12
  %53 = load ptr, ptr %8, align 8, !tbaa !57
  %54 = call noalias ptr @hwloc_bitmap_dup(ptr noundef %53)
  %55 = load ptr, ptr %12, align 8, !tbaa !12
  %56 = getelementptr inbounds nuw %struct.hwloc_obj, ptr %55, i32 0, i32 25
  store ptr %54, ptr %56, align 8, !tbaa !178
  %57 = load ptr, ptr %9, align 8, !tbaa !12
  %58 = getelementptr inbounds nuw %struct.hwloc_obj, ptr %57, i32 0, i32 27
  %59 = load ptr, ptr %58, align 8, !tbaa !56
  %60 = call noalias ptr @hwloc_bitmap_dup(ptr noundef %59)
  %61 = load ptr, ptr %12, align 8, !tbaa !12
  %62 = getelementptr inbounds nuw %struct.hwloc_obj, ptr %61, i32 0, i32 27
  store ptr %60, ptr %62, align 8, !tbaa !56
  %63 = load ptr, ptr %7, align 8, !tbaa !111
  %64 = getelementptr inbounds nuw %struct.hwloc_synthetic_attached_s, ptr %63, i32 0, i32 0
  %65 = load ptr, ptr %12, align 8, !tbaa !12
  call void @hwloc_synthetic_set_attr(ptr noundef %64, ptr noundef %65)
  %66 = load ptr, ptr %5, align 8, !tbaa !3
  %67 = load ptr, ptr %12, align 8, !tbaa !12
  %68 = call ptr @hwloc__insert_object_by_cpuset(ptr noundef %66, ptr noundef null, ptr noundef %67, ptr noundef @.str.65)
  call void @llvm.lifetime.end.p0(i64 8, ptr %12) #13
  br label %69

69:                                               ; preds = %50, %16
  %70 = load ptr, ptr %5, align 8, !tbaa !3
  %71 = load ptr, ptr %6, align 8, !tbaa !88
  %72 = load ptr, ptr %7, align 8, !tbaa !111
  %73 = getelementptr inbounds nuw %struct.hwloc_synthetic_attached_s, ptr %72, i32 0, i32 1
  %74 = load ptr, ptr %73, align 8, !tbaa !116
  %75 = load ptr, ptr %8, align 8, !tbaa !57
  call void @hwloc_synthetic_insert_attached(ptr noundef %70, ptr noundef %71, ptr noundef %74, ptr noundef %75)
  store i32 0, ptr %11, align 4
  br label %76

76:                                               ; preds = %69, %15
  call void @llvm.lifetime.end.p0(i64 4, ptr %10) #13
  call void @llvm.lifetime.end.p0(i64 8, ptr %9) #13
  %77 = load i32, ptr %11, align 4
  switch i32 %77, label %79 [
    i32 0, label %78
    i32 1, label %78
  ]

78:                                               ; preds = %76, %76
  ret void

79:                                               ; preds = %76
  unreachable
}