; Function Attrs: nounwind uwtable
define internal fastcc void @hwloc_synthetic_insert_attached(ptr noundef %0, ptr noundef captures(none) %1, ptr noundef readonly captures(address_is_null) %2, ptr noundef %3) unnamed_addr #0 {
  %.not31 = icmp eq ptr %2, null
  br i1 %.not31, label %tailrecurse._crit_edge, label %.lr.ph

.lr.ph:                                           ; preds = %4
  %5 = getelementptr inbounds nuw i8, ptr %1, i64 40
  %6 = getelementptr inbounds nuw i8, ptr %1, i64 32
  br label %7

7:                                                ; preds = %.lr.ph, %tailrecurse
  %.tr2932 = phi ptr [ %2, %.lr.ph ], [ %34, %tailrecurse ]
  %8 = load i32, ptr %5, align 8, !tbaa !150
  %9 = add i32 %8, 1
  store i32 %9, ptr %5, align 8, !tbaa !150
  %10 = load ptr, ptr %6, align 8, !tbaa !137
  %.not.i = icmp eq ptr %10, null
  br i1 %.not.i, label %hwloc_synthetic_next_index.exit, label %11

11:                                               ; preds = %7
  %12 = zext i32 %8 to i64
  %13 = getelementptr inbounds nuw i32, ptr %10, i64 %12
  %14 = load i32, ptr %13, align 4, !tbaa !58
  br label %hwloc_synthetic_next_index.exit

hwloc_synthetic_next_index.exit:                  ; preds = %7, %11
  %.0.i = phi i32 [ %14, %11 ], [ %8, %7 ]
  %15 = load i32, ptr %.tr2932, align 8, !tbaa !96
  %16 = tail call ptr @hwloc_alloc_setup_object(ptr noundef %0, i32 noundef %15, i32 noundef %.0.i) #22
  %17 = tail call noalias ptr @hwloc_bitmap_dup(ptr noundef %3) #22
  %18 = getelementptr inbounds nuw i8, ptr %16, i64 184
  store ptr %17, ptr %18, align 8, !tbaa !152
  %19 = tail call noalias ptr @hwloc_bitmap_alloc() #22
  %20 = getelementptr inbounds nuw i8, ptr %16, i64 200
  store ptr %19, ptr %20, align 8, !tbaa !39
  %21 = tail call i32 @hwloc_bitmap_set(ptr noundef %19, i32 noundef %.0.i) #22
  tail call fastcc void @hwloc_synthetic_set_attr(ptr noundef nonnull %.tr2932, ptr noundef %16)
  %22 = tail call ptr @hwloc__insert_object_by_cpuset(ptr noundef %0, ptr noundef null, ptr noundef %16, ptr noundef nonnull @.str.64) #22
  %23 = getelementptr inbounds nuw i8, ptr %.tr2932, i64 24
  %24 = load i64, ptr %23, align 8, !tbaa !154
  %.not27 = icmp eq i64 %24, 0
  br i1 %.not27, label %tailrecurse, label %25

25:                                               ; preds = %hwloc_synthetic_next_index.exit
  %26 = tail call ptr @hwloc_alloc_setup_object(ptr noundef %0, i32 noundef 15, i32 noundef -1) #22
  %27 = tail call noalias ptr @hwloc_bitmap_dup(ptr noundef %3) #22
  %28 = getelementptr inbounds nuw i8, ptr %26, i64 184
  store ptr %27, ptr %28, align 8, !tbaa !152
  %29 = load ptr, ptr %20, align 8, !tbaa !39
  %30 = tail call noalias ptr @hwloc_bitmap_dup(ptr noundef %29) #22
  %31 = getelementptr inbounds nuw i8, ptr %26, i64 200
  store ptr %30, ptr %31, align 8, !tbaa !39
  tail call fastcc void @hwloc_synthetic_set_attr(ptr noundef nonnull %.tr2932, ptr noundef %26)
  %32 = tail call ptr @hwloc__insert_object_by_cpuset(ptr noundef %0, ptr noundef null, ptr noundef %26, ptr noundef nonnull @.str.65) #22
  br label %tailrecurse

tailrecurse:                                      ; preds = %25, %hwloc_synthetic_next_index.exit
  %33 = getelementptr inbounds nuw i8, ptr %.tr2932, i64 32
  %34 = load ptr, ptr %33, align 8, !tbaa !112
  %.not = icmp eq ptr %34, null
  br i1 %.not, label %tailrecurse._crit_edge, label %7

tailrecurse._crit_edge:                           ; preds = %tailrecurse, %4
  ret void
}